target datalayout = "e-m:e-p270:32:32-p271:32:32-p272:64:64-i64:64-i128:128-f80:128-n8:16:32:64-S128"
target triple = "x86_64-pc-linux-gnu"

%"struct.pkpy::Tuple" = type <{ ptr, [3 x ptr], i32, [4 x i8] }>

; Function Attrs: mustprogress nounwind uwtable
define void @_ZN4pkpy5TupleC2Ei(ptr noundef nonnull align 8 dereferenceable(36) %0, i32 noundef %1) unnamed_addr #4 align 2 {
  %3 = alloca ptr, align 8
  %4 = alloca i32, align 4
  store ptr %0, ptr %3, align 8
  store i32 %1, ptr %4, align 4
  %5 = load ptr, ptr %3, align 8
  %6 = load i32, ptr %4, align 4
  %7 = icmp sle i32 %6, 3
  br i1 %7, label %8, label %12

8:                                                ; preds = %2
  %9 = getelementptr inbounds %"struct.pkpy::Tuple", ptr %5, i32 0, i32 1
  %10 = getelementptr inbounds [3 x ptr], ptr %9, i64 0, i64 0
  %11 = getelementptr inbounds %"struct.pkpy::Tuple", ptr %5, i32 0, i32 0
  store ptr %10, ptr %11, align 8
  br label %18

12:                                               ; preds = %2
  %13 = load i32, ptr %4, align 4
  %14 = sext i32 %13 to i64
  %15 = mul i64 %14, 8
  %16 = call noundef ptr @_ZN4pkpy12pool64_allocEm(i64 noundef %15) #3
  %17 = getelementptr inbounds %"struct.pkpy::Tuple", ptr %5, i32 0, i32 0
  store ptr %16, ptr %17, align 8
  br label %18

18:                                               ; preds = %12, %8
  %19 = load i32, ptr %4, align 4
  %20 = getelementptr inbounds %"struct.pkpy::Tuple", ptr %5, i32 0, i32 2
  store i32 %19, ptr %20, align 8
  ret void
}