; Function Attrs: mustprogress nounwind uwtable
define void @_ZN4pkpy5TupleC2Ei(ptr noundef nonnull align 8 dereferenceable(36) %0, i32 noundef %1) unnamed_addr #3 align 2 {
  %3 = icmp slt i32 %1, 4
  br i1 %3, label %4, label %6

4:                                                ; preds = %2
  %5 = getelementptr inbounds i8, ptr %0, i64 8
  br label %10

6:                                                ; preds = %2
  %7 = zext nneg i32 %1 to i64
  %8 = shl nuw nsw i64 %7, 3
  %9 = tail call noundef ptr @_ZN4pkpy12pool64_allocEm(i64 noundef %8) #10
  br label %10

10:                                               ; preds = %6, %4
  %storemerge = phi ptr [ %9, %6 ], [ %5, %4 ]
  store ptr %storemerge, ptr %0, align 8
  %11 = getelementptr inbounds i8, ptr %0, i64 32
  store i32 %1, ptr %11, align 8
  ret void
}